; Function Attrs: nounwind uwtable
define dso_local void @addReplyErrorSdsEx(ptr noundef %0, ptr noundef %1, i32 noundef %2) local_unnamed_addr #0 {
  %4 = getelementptr inbounds i8, ptr %1, i64 -1
  %5 = load i8, ptr %4, align 1, !tbaa !12
  %6 = zext i8 %5 to i32
  %7 = and i32 %6, 7
  switch i32 %7, label %.split7.i [
    i32 0, label %8
    i32 1, label %11
    i32 2, label %15
    i32 3, label %19
    i32 4, label %23
  ]

8:                                                ; preds = %3
  %9 = lshr i32 %6, 3
  %10 = zext nneg i32 %9 to i64
  br label %sdslen.exit

11:                                               ; preds = %3
  %12 = getelementptr inbounds i8, ptr %1, i64 -3
  %13 = load i8, ptr %12, align 1, !tbaa !12
  %14 = zext i8 %13 to i64
  br label %sdslen.exit

15:                                               ; preds = %3
  %16 = getelementptr inbounds i8, ptr %1, i64 -5
  %17 = load i16, ptr %16, align 1, !tbaa !13
  %18 = zext i16 %17 to i64
  br label %sdslen.exit

19:                                               ; preds = %3
  %20 = getelementptr inbounds i8, ptr %1, i64 -9
  %21 = load i32, ptr %20, align 1, !tbaa !15
  %22 = zext i32 %21 to i64
  br label %sdslen.exit

23:                                               ; preds = %3
  %24 = getelementptr inbounds i8, ptr %1, i64 -17
  %25 = load i64, ptr %24, align 1, !tbaa !16
  br label %sdslen.exit

sdslen.exit:                                      ; preds = %8, %11, %15, %19, %23
  %.0.i = phi i64 [ %25, %23 ], [ %22, %19 ], [ %18, %15 ], [ %14, %11 ], [ %10, %8 ]
  %.not.i = icmp eq i64 %.0.i, 0
  br i1 %.not.i, label %.split7.i, label %26

26:                                               ; preds = %sdslen.exit
  %27 = load i8, ptr %1, align 1, !tbaa !12
  %.not8.i = icmp eq i8 %27, 45
  br i1 %.not8.i, label %addReplyErrorLength.exit, label %.split7.i

.split7.i:                                        ; preds = %3, %26, %sdslen.exit
  %.0.i12 = phi i64 [ %.0.i, %26 ], [ 0, %sdslen.exit ], [ 0, %3 ]
  tail call void @addReplyProto(ptr noundef %0, ptr noundef nonnull @.str.5, i64 noundef 5)
  br label %addReplyErrorLength.exit

addReplyErrorLength.exit:                         ; preds = %26, %.split7.i
  %.0.i11 = phi i64 [ %.0.i, %26 ], [ %.0.i12, %.split7.i ]
  tail call void @addReplyProto(ptr noundef %0, ptr noundef nonnull readonly %1, i64 noundef %.0.i11)
  tail call void @addReplyProto(ptr noundef %0, ptr noundef nonnull @.str.6, i64 noundef 2)
  %28 = load i8, ptr %4, align 1, !tbaa !12
  %29 = zext i8 %28 to i32
  %30 = and i32 %29, 7
  switch i32 %30, label %sdslen.exit8 [
    i32 0, label %31
    i32 1, label %34
    i32 2, label %38
    i32 3, label %42
    i32 4, label %46
  ]

31:                                               ; preds = %addReplyErrorLength.exit
  %32 = lshr i32 %29, 3
  %33 = zext nneg i32 %32 to i64
  br label %sdslen.exit8

34:                                               ; preds = %addReplyErrorLength.exit
  %35 = getelementptr inbounds i8, ptr %1, i64 -3
  %36 = load i8, ptr %35, align 1, !tbaa !12
  %37 = zext i8 %36 to i64
  br label %sdslen.exit8

38:                                               ; preds = %addReplyErrorLength.exit
  %39 = getelementptr inbounds i8, ptr %1, i64 -5
  %40 = load i16, ptr %39, align 1, !tbaa !13
  %41 = zext i16 %40 to i64
  br label %sdslen.exit8

42:                                               ; preds = %addReplyErrorLength.exit
  %43 = getelementptr inbounds i8, ptr %1, i64 -9
  %44 = load i32, ptr %43, align 1, !tbaa !15
  %45 = zext i32 %44 to i64
  br label %sdslen.exit8

46:                                               ; preds = %addReplyErrorLength.exit
  %47 = getelementptr inbounds i8, ptr %1, i64 -17
  %48 = load i64, ptr %47, align 1, !tbaa !16
  br label %sdslen.exit8

sdslen.exit8:                                     ; preds = %addReplyErrorLength.exit, %31, %34, %38, %42, %46
  %.0.i7 = phi i64 [ %48, %46 ], [ %45, %42 ], [ %41, %38 ], [ %37, %34 ], [ %33, %31 ], [ 0, %addReplyErrorLength.exit ]
  tail call void @afterErrorReply(ptr noundef %0, ptr noundef nonnull %1, i64 noundef %.0.i7, i32 noundef %2)
  tail call void @sdsfree(ptr noundef nonnull %1) #26
  ret void
}